target datalayout = "e-m:e-p270:32:32-p271:32:32-p272:64:64-i64:64-i128:128-f80:128-n8:16:32:64-S128"
target triple = "x86_64-pc-linux-gnu"

%struct.Node = type { i32 }
%struct.Plan = type { i32, i32, double, double, double, i32, i8, i8, i8, i32, ptr, ptr, ptr, ptr, ptr, ptr, ptr }
%struct.CustomScan = type { %struct.Scan, i32, ptr, ptr, ptr, ptr, ptr, ptr }
%struct.Scan = type { %struct.Plan, i32 }
%struct.Result = type { %struct.Plan, ptr }

; Function Attrs: inlinehint nounwind uwtable
define internal ptr @newNode(i64 noundef %0, i32 noundef %1) #4 {
  %3 = alloca i64, align 8
  %4 = alloca i32, align 4
  %5 = alloca ptr, align 8
  store i64 %0, ptr %3, align 8
  store i32 %1, ptr %4, align 4
  call void @llvm.lifetime.start.p0(i64 8, ptr %5) #10
  %6 = load i64, ptr %3, align 8
  %7 = call ptr @palloc0(i64 noundef %6)
  store ptr %7, ptr %5, align 8
  %8 = load i32, ptr %4, align 4
  %9 = load ptr, ptr %5, align 8
  %10 = getelementptr inbounds nuw %struct.Node, ptr %9, i32 0, i32 0
  store i32 %8, ptr %10, align 4
  %11 = load ptr, ptr %5, align 8
  call void @llvm.lifetime.end.p0(i64 8, ptr %5) #10
  ret ptr %11
}

; Function Attrs: nounwind uwtable
define internal void @copy_plan_costsize(ptr noundef %0, ptr noundef %1) #0 {
  %3 = alloca ptr, align 8
  %4 = alloca ptr, align 8
  store ptr %0, ptr %3, align 8
  store ptr %1, ptr %4, align 8
  %5 = load ptr, ptr %4, align 8
  %6 = getelementptr inbounds nuw %struct.Plan, ptr %5, i32 0, i32 1
  %7 = load i32, ptr %6, align 4
  %8 = load ptr, ptr %3, align 8
  %9 = getelementptr inbounds nuw %struct.Plan, ptr %8, i32 0, i32 1
  store i32 %7, ptr %9, align 4
  %10 = load ptr, ptr %4, align 8
  %11 = getelementptr inbounds nuw %struct.Plan, ptr %10, i32 0, i32 2
  %12 = load double, ptr %11, align 8
  %13 = load ptr, ptr %3, align 8
  %14 = getelementptr inbounds nuw %struct.Plan, ptr %13, i32 0, i32 2
  store double %12, ptr %14, align 8
  %15 = load ptr, ptr %4, align 8
  %16 = getelementptr inbounds nuw %struct.Plan, ptr %15, i32 0, i32 3
  %17 = load double, ptr %16, align 8
  %18 = load ptr, ptr %3, align 8
  %19 = getelementptr inbounds nuw %struct.Plan, ptr %18, i32 0, i32 3
  store double %17, ptr %19, align 8
  %20 = load ptr, ptr %4, align 8
  %21 = getelementptr inbounds nuw %struct.Plan, ptr %20, i32 0, i32 4
  %22 = load double, ptr %21, align 8
  %23 = load ptr, ptr %3, align 8
  %24 = getelementptr inbounds nuw %struct.Plan, ptr %23, i32 0, i32 4
  store double %22, ptr %24, align 8
  %25 = load ptr, ptr %4, align 8
  %26 = getelementptr inbounds nuw %struct.Plan, ptr %25, i32 0, i32 5
  %27 = load i32, ptr %26, align 8
  %28 = load ptr, ptr %3, align 8
  %29 = getelementptr inbounds nuw %struct.Plan, ptr %28, i32 0, i32 5
  store i32 %27, ptr %29, align 8
  %30 = load ptr, ptr %3, align 8
  %31 = getelementptr inbounds nuw %struct.Plan, ptr %30, i32 0, i32 6
  store i8 0, ptr %31, align 4
  %32 = load ptr, ptr %4, align 8
  %33 = getelementptr inbounds nuw %struct.Plan, ptr %32, i32 0, i32 7
  %34 = load i8, ptr %33, align 1, !range !4, !noundef !5
  %35 = trunc i8 %34 to i1
  %36 = load ptr, ptr %3, align 8
  %37 = getelementptr inbounds nuw %struct.Plan, ptr %36, i32 0, i32 7
  %38 = zext i1 %35 to i8
  store i8 %38, ptr %37, align 1
  ret void
}

; Function Attrs: nounwind uwtable
define internal ptr @make_result(ptr noundef %0, ptr noundef %1, ptr noundef %2) #0 {
  %4 = alloca ptr, align 8
  %5 = alloca ptr, align 8
  %6 = alloca ptr, align 8
  %7 = alloca ptr, align 8
  %8 = alloca ptr, align 8
  store ptr %0, ptr %4, align 8
  store ptr %1, ptr %5, align 8
  store ptr %2, ptr %6, align 8
  call void @llvm.lifetime.start.p0(i64 8, ptr %7) #10
  %9 = call ptr @newNode(i64 noundef 112, i32 noundef 330)
  store ptr %9, ptr %7, align 8
  call void @llvm.lifetime.start.p0(i64 8, ptr %8) #10
  %10 = load ptr, ptr %7, align 8
  %11 = getelementptr inbounds nuw %struct.Result, ptr %10, i32 0, i32 0
  store ptr %11, ptr %8, align 8
  %12 = load ptr, ptr %4, align 8
  %13 = load ptr, ptr %8, align 8
  %14 = getelementptr inbounds nuw %struct.Plan, ptr %13, i32 0, i32 10
  store ptr %12, ptr %14, align 8
  %15 = load ptr, ptr %8, align 8
  %16 = getelementptr inbounds nuw %struct.Plan, ptr %15, i32 0, i32 11
  store ptr null, ptr %16, align 8
  %17 = load ptr, ptr %6, align 8
  %18 = load ptr, ptr %8, align 8
  %19 = getelementptr inbounds nuw %struct.Plan, ptr %18, i32 0, i32 12
  store ptr %17, ptr %19, align 8
  %20 = load ptr, ptr %8, align 8
  %21 = getelementptr inbounds nuw %struct.Plan, ptr %20, i32 0, i32 13
  store ptr null, ptr %21, align 8
  %22 = load ptr, ptr %5, align 8
  %23 = load ptr, ptr %7, align 8
  %24 = getelementptr inbounds nuw %struct.Result, ptr %23, i32 0, i32 1
  store ptr %22, ptr %24, align 8
  %25 = load ptr, ptr %7, align 8
  call void @llvm.lifetime.end.p0(i64 8, ptr %8) #10
  call void @llvm.lifetime.end.p0(i64 8, ptr %7) #10
  ret ptr %25
}

; Function Attrs: nounwind uwtable
define internal ptr @inject_projection_plan(ptr noundef %0, ptr noundef %1, i1 noundef zeroext %2) #0 {
  %4 = alloca ptr, align 8
  %5 = alloca ptr, align 8
  %6 = alloca i8, align 1
  %7 = alloca ptr, align 8
  store ptr %0, ptr %4, align 8
  store ptr %1, ptr %5, align 8
  %8 = zext i1 %2 to i8
  store i8 %8, ptr %6, align 1
  call void @llvm.lifetime.start.p0(i64 8, ptr %7) #10
  %9 = load ptr, ptr %5, align 8
  %10 = load ptr, ptr %4, align 8
  %11 = call ptr @make_result(ptr noundef %9, ptr noundef null, ptr noundef %10)
  store ptr %11, ptr %7, align 8
  %12 = load ptr, ptr %7, align 8
  %13 = load ptr, ptr %4, align 8
  call void @copy_plan_costsize(ptr noundef %12, ptr noundef %13)
  %14 = load i8, ptr %6, align 1, !range !4, !noundef !5
  %15 = trunc i8 %14 to i1
  %16 = load ptr, ptr %7, align 8
  %17 = getelementptr inbounds nuw %struct.Plan, ptr %16, i32 0, i32 7
  %18 = zext i1 %15 to i8
  store i8 %18, ptr %17, align 1
  %19 = load ptr, ptr %7, align 8
  call void @llvm.lifetime.end.p0(i64 8, ptr %7) #10
  ret ptr %19
}

; Function Attrs: nounwind uwtable
define dso_local zeroext i1 @is_projection_capable_plan(ptr noundef %0) #0 {
  %2 = alloca i1, align 1
  %3 = alloca ptr, align 8
  store ptr %0, ptr %3, align 8
  %4 = load ptr, ptr %3, align 8
  %5 = getelementptr inbounds nuw %struct.Node, ptr %4, i32 0, i32 0
  %6 = load i32, ptr %5, align 4
  switch i32 %6, label %17 [
    i32 369, label %7
    i32 359, label %7
    i32 360, label %7
    i32 361, label %7
    i32 366, label %7
    i32 370, label %7
    i32 371, label %7
    i32 372, label %7
    i32 332, label %7
    i32 333, label %7
    i32 334, label %7
    i32 335, label %7
    i32 354, label %8
    i32 331, label %16
  ]

7:                                                ; preds = %1, %1, %1, %1, %1, %1, %1, %1, %1, %1, %1, %1
  store i1 false, ptr %2, align 1
  br label %19

8:                                                ; preds = %1
  %9 = load ptr, ptr %3, align 8
  %10 = getelementptr inbounds nuw %struct.CustomScan, ptr %9, i32 0, i32 1
  %11 = load i32, ptr %10, align 8
  %12 = and i32 %11, 4
  %13 = icmp ne i32 %12, 0
  br i1 %13, label %14, label %15

14:                                               ; preds = %8
  store i1 true, ptr %2, align 1
  br label %19

15:                                               ; preds = %8
  store i1 false, ptr %2, align 1
  br label %19

16:                                               ; preds = %1
  store i1 false, ptr %2, align 1
  br label %19

17:                                               ; preds = %1
  br label %18

18:                                               ; preds = %17
  store i1 true, ptr %2, align 1
  br label %19

19:                                               ; preds = %18, %16, %15, %14, %7
  %20 = load i1, ptr %2, align 1
  ret i1 %20
}

; Function Attrs: nounwind uwtable
define dso_local ptr @change_plan_targetlist(ptr noundef %0, ptr noundef %1, i1 noundef zeroext %2) #0 {
  %4 = alloca ptr, align 8
  %5 = alloca ptr, align 8
  %6 = alloca i8, align 1
  store ptr %0, ptr %4, align 8
  store ptr %1, ptr %5, align 8
  %7 = zext i1 %2 to i8
  store i8 %7, ptr %6, align 1
  %8 = load ptr, ptr %4, align 8
  %9 = call zeroext i1 @is_projection_capable_plan(ptr noundef %8)
  br i1 %9, label %29, label %10

10:                                               ; preds = %3
  %11 = load ptr, ptr %5, align 8
  %12 = load ptr, ptr %4, align 8
  %13 = getelementptr inbounds nuw %struct.Plan, ptr %12, i32 0, i32 10
  %14 = load ptr, ptr %13, align 8
  %15 = call zeroext i1 @tlist_same_exprs(ptr noundef %11, ptr noundef %14)
  br i1 %15, label %29, label %16

16:                                               ; preds = %10
  %17 = load ptr, ptr %4, align 8
  %18 = load ptr, ptr %5, align 8
  %19 = load ptr, ptr %4, align 8
  %20 = getelementptr inbounds nuw %struct.Plan, ptr %19, i32 0, i32 7
  %21 = load i8, ptr %20, align 1, !range !4, !noundef !5
  %22 = trunc i8 %21 to i1
  br i1 %22, label %23, label %26

23:                                               ; preds = %16
  %24 = load i8, ptr %6, align 1, !range !4, !noundef !5
  %25 = trunc i8 %24 to i1
  br label %26

26:                                               ; preds = %23, %16
  %27 = phi i1 [ false, %16 ], [ %25, %23 ]
  %28 = call ptr @inject_projection_plan(ptr noundef %17, ptr noundef %18, i1 noundef zeroext %27)
  store ptr %28, ptr %4, align 8
  br label %44

29:                                               ; preds = %10, %3
  %30 = load ptr, ptr %5, align 8
  %31 = load ptr, ptr %4, align 8
  %32 = getelementptr inbounds nuw %struct.Plan, ptr %31, i32 0, i32 10
  store ptr %30, ptr %32, align 8
  %33 = load i8, ptr %6, align 1, !range !4, !noundef !5
  %34 = trunc i8 %33 to i1
  %35 = zext i1 %34 to i32
  %36 = load ptr, ptr %4, align 8
  %37 = getelementptr inbounds nuw %struct.Plan, ptr %36, i32 0, i32 7
  %38 = load i8, ptr %37, align 1, !range !4, !noundef !5
  %39 = trunc i8 %38 to i1
  %40 = zext i1 %39 to i32
  %41 = and i32 %40, %35
  %42 = icmp ne i32 %41, 0
  %43 = zext i1 %42 to i8
  store i8 %43, ptr %37, align 1
  br label %44

44:                                               ; preds = %29, %26
  %45 = load ptr, ptr %4, align 8
  ret ptr %45
}