; Function Attrs: nounwind uwtable
define dso_local noundef ptr @change_plan_targetlist(ptr noundef %0, ptr noundef %1, i1 noundef zeroext %2) local_unnamed_addr #0 {
  %4 = load i32, ptr %0, align 4
  switch i32 %4, label %is_projection_capable_plan.exit.thread [
    i32 369, label %is_projection_capable_plan.exit.thread12
    i32 359, label %is_projection_capable_plan.exit.thread12
    i32 360, label %is_projection_capable_plan.exit.thread12
    i32 361, label %is_projection_capable_plan.exit.thread12
    i32 366, label %is_projection_capable_plan.exit.thread12
    i32 370, label %is_projection_capable_plan.exit.thread12
    i32 371, label %is_projection_capable_plan.exit.thread12
    i32 372, label %is_projection_capable_plan.exit.thread12
    i32 332, label %is_projection_capable_plan.exit.thread12
    i32 333, label %is_projection_capable_plan.exit.thread12
    i32 334, label %is_projection_capable_plan.exit.thread12
    i32 335, label %is_projection_capable_plan.exit.thread12
    i32 354, label %is_projection_capable_plan.exit
    i32 331, label %is_projection_capable_plan.exit.thread12
  ]

is_projection_capable_plan.exit:                  ; preds = %3
  %5 = getelementptr inbounds nuw i8, ptr %0, i64 112
  %6 = load i32, ptr %5, align 8
  %7 = and i32 %6, 4
  %.not.i.not = icmp eq i32 %7, 0
  br i1 %.not.i.not, label %is_projection_capable_plan.exit.thread12, label %is_projection_capable_plan.exit.thread

is_projection_capable_plan.exit.thread12:         ; preds = %3, %3, %3, %3, %3, %3, %3, %3, %3, %3, %3, %3, %3, %is_projection_capable_plan.exit
  %8 = getelementptr inbounds nuw i8, ptr %0, i64 48
  %9 = load ptr, ptr %8, align 8
  %10 = tail call zeroext i1 @tlist_same_exprs(ptr noundef %1, ptr noundef %9) #12
  br i1 %10, label %is_projection_capable_plan.exit.thread, label %11

11:                                               ; preds = %is_projection_capable_plan.exit.thread12
  %12 = getelementptr inbounds nuw i8, ptr %0, i64 37
  %13 = load i8, ptr %12, align 1, !range !4, !noundef !5
  %14 = trunc nuw i8 %13 to i1
  %15 = and i1 %2, %14
  %16 = zext i1 %15 to i8
  %17 = tail call noundef ptr @palloc0(i64 noundef 112) #12
  store i32 330, ptr %17, align 4
  %18 = getelementptr inbounds nuw i8, ptr %17, i64 48
  store ptr %1, ptr %18, align 8
  %19 = getelementptr inbounds nuw i8, ptr %17, i64 56
  store ptr null, ptr %19, align 8
  %20 = getelementptr inbounds nuw i8, ptr %17, i64 64
  store ptr %0, ptr %20, align 8
  %21 = getelementptr inbounds nuw i8, ptr %17, i64 72
  store ptr null, ptr %21, align 8
  %22 = getelementptr inbounds nuw i8, ptr %17, i64 104
  store ptr null, ptr %22, align 8
  %23 = getelementptr inbounds nuw i8, ptr %0, i64 4
  %24 = load i32, ptr %23, align 4
  %25 = getelementptr inbounds nuw i8, ptr %17, i64 4
  store i32 %24, ptr %25, align 4
  %26 = getelementptr inbounds nuw i8, ptr %0, i64 8
  %27 = load double, ptr %26, align 8
  %28 = getelementptr inbounds nuw i8, ptr %17, i64 8
  store double %27, ptr %28, align 8
  %29 = getelementptr inbounds nuw i8, ptr %0, i64 16
  %30 = load double, ptr %29, align 8
  %31 = getelementptr inbounds nuw i8, ptr %17, i64 16
  store double %30, ptr %31, align 8
  %32 = getelementptr inbounds nuw i8, ptr %0, i64 24
  %33 = load double, ptr %32, align 8
  %34 = getelementptr inbounds nuw i8, ptr %17, i64 24
  store double %33, ptr %34, align 8
  %35 = getelementptr inbounds nuw i8, ptr %0, i64 32
  %36 = load i32, ptr %35, align 8
  %37 = getelementptr inbounds nuw i8, ptr %17, i64 32
  store i32 %36, ptr %37, align 8
  %38 = getelementptr inbounds nuw i8, ptr %17, i64 36
  store i8 0, ptr %38, align 4
  %39 = getelementptr inbounds nuw i8, ptr %17, i64 37
  store i8 %16, ptr %39, align 1
  br label %46

is_projection_capable_plan.exit.thread:           ; preds = %3, %is_projection_capable_plan.exit.thread12, %is_projection_capable_plan.exit
  %40 = getelementptr inbounds nuw i8, ptr %0, i64 48
  store ptr %1, ptr %40, align 8
  %41 = getelementptr inbounds nuw i8, ptr %0, i64 37
  %42 = load i8, ptr %41, align 1, !range !4, !noundef !5
  %43 = icmp ne i8 %42, 0
  %44 = and i1 %2, %43
  %45 = zext i1 %44 to i8
  store i8 %45, ptr %41, align 1
  br label %46

46:                                               ; preds = %is_projection_capable_plan.exit.thread, %11
  %.0 = phi ptr [ %0, %is_projection_capable_plan.exit.thread ], [ %17, %11 ]
  ret ptr %.0
}